; Function Attrs: nounwind uwtable
define dso_local i32 @lua_resume(ptr noundef %0, i32 noundef %1) local_unnamed_addr #1 {
  %3 = getelementptr inbounds nuw i8, ptr %0, i64 80
  %4 = load ptr, ptr %3, align 8, !tbaa !62
  %5 = icmp eq ptr %4, null
  br i1 %5, label %6, label %27

6:                                                ; preds = %2
  %7 = getelementptr inbounds nuw i8, ptr %0, i64 11
  %8 = load i8, ptr %7, align 1, !tbaa !4
  %9 = icmp ult i8 %8, 2
  br i1 %9, label %10, label %27

10:                                               ; preds = %6
  %11 = icmp eq i8 %8, 0
  %12 = getelementptr inbounds nuw i8, ptr %0, i64 40
  %13 = load ptr, ptr %12, align 8, !tbaa !14
  %14 = sext i32 %1 to i64
  %15 = sub nsw i64 0, %14
  %16 = getelementptr inbounds %union.TValue, ptr %13, i64 %15
  br i1 %11, label %17, label %24

17:                                               ; preds = %10
  %18 = getelementptr inbounds nuw i8, ptr %13, i64 8
  store ptr %18, ptr %12, align 8, !tbaa !14
  %19 = icmp sgt i32 %1, 0
  br i1 %19, label %.lr.ph.i, label %api_call_base.exit

.lr.ph.i:                                         ; preds = %17, %.lr.ph.i
  %.012.i = phi ptr [ %20, %.lr.ph.i ], [ %13, %17 ]
  %20 = getelementptr inbounds i8, ptr %.012.i, i64 -8
  %21 = load i64, ptr %20, align 8, !tbaa !17
  store i64 %21, ptr %.012.i, align 8, !tbaa !17
  %22 = icmp ugt ptr %20, %16
  br i1 %22, label %.lr.ph.i, label %api_call_base.exit, !llvm.loop !59

api_call_base.exit:                               ; preds = %.lr.ph.i, %17
  %.0.lcssa.i = phi ptr [ %13, %17 ], [ %20, %.lr.ph.i ]
  store i64 -1, ptr %.0.lcssa.i, align 8, !tbaa !17
  %23 = getelementptr inbounds nuw i8, ptr %.0.lcssa.i, i64 8
  br label %24

24:                                               ; preds = %10, %api_call_base.exit
  %25 = phi ptr [ %23, %api_call_base.exit ], [ %16, %10 ]
  %26 = tail call i32 @lj_vm_resume(ptr noundef %0, ptr noundef %25, i32 noundef 0, i64 noundef 0) #13
  br label %40

27:                                               ; preds = %6, %2
  %28 = getelementptr inbounds nuw i8, ptr %0, i64 32
  %29 = load ptr, ptr %28, align 8, !tbaa !15
  %30 = getelementptr inbounds nuw i8, ptr %0, i64 40
  store ptr %29, ptr %30, align 8, !tbaa !14
  %31 = tail call ptr @lj_err_str(ptr noundef nonnull %0, i32 noundef 1347) #13
  %32 = ptrtoint ptr %31 to i64
  %33 = or i64 %32, -703687441776640
  store i64 %33, ptr %29, align 8, !tbaa !17
  %34 = load ptr, ptr %30, align 8, !tbaa !14
  %35 = getelementptr inbounds nuw i8, ptr %34, i64 8
  store ptr %35, ptr %30, align 8, !tbaa !14
  %36 = getelementptr inbounds nuw i8, ptr %0, i64 48
  %37 = load i64, ptr %36, align 8, !tbaa !16
  %38 = inttoptr i64 %37 to ptr
  %.not = icmp ult ptr %35, %38
  br i1 %.not, label %40, label %39

39:                                               ; preds = %27
  tail call void @lj_state_growstack1(ptr noundef nonnull %0) #13
  br label %40

40:                                               ; preds = %27, %39, %24
  %.0 = phi i32 [ %26, %24 ], [ 2, %39 ], [ 2, %27 ]
  ret i32 %.0
}